; Function Attrs: null_pointer_is_valid sspstrong uwtable
define hidden ptr @wmem_tree_insert_node(ptr noundef captures(none) %0, ptr noundef %1, ptr noundef %2, ptr noundef readonly captures(none) %3) local_unnamed_addr #0 {
  %5 = getelementptr inbounds nuw i8, ptr %0, i64 16
  %6 = load ptr, ptr %5, align 8
  %.not = icmp eq ptr %6, null
  %7 = getelementptr inbounds nuw i8, ptr %0, i64 8
  br i1 %.not, label %8, label %.preheader

8:                                                ; preds = %4
  %9 = load ptr, ptr %7, align 8
  %10 = tail call noalias dereferenceable_or_null(48) ptr @wmem_alloc(ptr noundef %9, i64 noundef 48) #10
  %11 = getelementptr inbounds nuw i8, ptr %10, i64 24
  tail call void @llvm.memset.p0.i64(ptr noundef align 8 dereferenceable(24) %10, i8 0, i64 24, i1 false)
  store ptr %1, ptr %11, align 8
  %12 = getelementptr inbounds nuw i8, ptr %10, i64 32
  store ptr %2, ptr %12, align 8
  %13 = getelementptr inbounds nuw i8, ptr %10, i64 40
  store i32 1, ptr %13, align 8
  %14 = getelementptr inbounds nuw i8, ptr %10, i64 44
  store i8 0, ptr %14, align 4
  %15 = getelementptr inbounds nuw i8, ptr %10, i64 45
  store i8 0, ptr %15, align 1
  store ptr %10, ptr %5, align 8
  br label %50

.preheader:                                       ; preds = %4, %48
  %.04462 = phi ptr [ %.145, %48 ], [ %6, %4 ]
  %16 = getelementptr inbounds nuw i8, ptr %.04462, i64 24
  %17 = load ptr, ptr %16, align 8
  %18 = tail call i32 %3(ptr noundef %1, ptr noundef %17)
  %.not56 = icmp eq i32 %18, 0
  br i1 %.not56, label %.thread, label %22

.thread:                                          ; preds = %.preheader
  %19 = getelementptr inbounds nuw i8, ptr %.04462, i64 32
  store ptr %2, ptr %19, align 8
  %.not55 = icmp eq ptr %2, null
  %20 = getelementptr inbounds nuw i8, ptr %.04462, i64 45
  %21 = zext i1 %.not55 to i8
  store i8 %21, ptr %20, align 1
  br label %50

22:                                               ; preds = %.preheader
  %23 = icmp slt i32 %18, 0
  br i1 %23, label %24, label %36

24:                                               ; preds = %22
  %25 = getelementptr inbounds nuw i8, ptr %.04462, i64 8
  %26 = load ptr, ptr %25, align 8
  %.not54 = icmp eq ptr %26, null
  br i1 %.not54, label %27, label %48

27:                                               ; preds = %24
  %28 = load ptr, ptr %7, align 8
  %29 = tail call noalias dereferenceable_or_null(48) ptr @wmem_alloc(ptr noundef %28, i64 noundef 48) #10
  %30 = getelementptr inbounds nuw i8, ptr %29, i64 8
  tail call void @llvm.memset.p0.i64(ptr noundef nonnull align 8 dereferenceable(16) %30, i8 0, i64 16, i1 false)
  store ptr %.04462, ptr %29, align 8
  %31 = getelementptr inbounds nuw i8, ptr %29, i64 24
  store ptr %1, ptr %31, align 8
  %32 = getelementptr inbounds nuw i8, ptr %29, i64 32
  store ptr %2, ptr %32, align 8
  %33 = getelementptr inbounds nuw i8, ptr %29, i64 40
  store i32 0, ptr %33, align 8
  %34 = getelementptr inbounds nuw i8, ptr %29, i64 44
  store i8 0, ptr %34, align 4
  %35 = getelementptr inbounds nuw i8, ptr %29, i64 45
  store i8 0, ptr %35, align 1
  store ptr %29, ptr %25, align 8
  br label %48

36:                                               ; preds = %22
  %37 = getelementptr inbounds nuw i8, ptr %.04462, i64 16
  %38 = load ptr, ptr %37, align 8
  %.not53 = icmp eq ptr %38, null
  br i1 %.not53, label %39, label %48

39:                                               ; preds = %36
  %40 = load ptr, ptr %7, align 8
  %41 = tail call noalias dereferenceable_or_null(48) ptr @wmem_alloc(ptr noundef %40, i64 noundef 48) #10
  %42 = getelementptr inbounds nuw i8, ptr %41, i64 8
  tail call void @llvm.memset.p0.i64(ptr noundef nonnull align 8 dereferenceable(16) %42, i8 0, i64 16, i1 false)
  store ptr %.04462, ptr %41, align 8
  %43 = getelementptr inbounds nuw i8, ptr %41, i64 24
  store ptr %1, ptr %43, align 8
  %44 = getelementptr inbounds nuw i8, ptr %41, i64 32
  store ptr %2, ptr %44, align 8
  %45 = getelementptr inbounds nuw i8, ptr %41, i64 40
  store i32 0, ptr %45, align 8
  %46 = getelementptr inbounds nuw i8, ptr %41, i64 44
  store i8 0, ptr %46, align 4
  %47 = getelementptr inbounds nuw i8, ptr %41, i64 45
  store i8 0, ptr %47, align 1
  store ptr %41, ptr %37, align 8
  br label %48

48:                                               ; preds = %39, %27, %24, %36
  %.145 = phi ptr [ %.04462, %27 ], [ %.04462, %39 ], [ %26, %24 ], [ %38, %36 ]
  %.142 = phi ptr [ %29, %27 ], [ %41, %39 ], [ null, %24 ], [ null, %36 ]
  %.not52 = icmp eq ptr %.142, null
  br i1 %.not52, label %.preheader, label %49, !llvm.loop !8

49:                                               ; preds = %48
  tail call fastcc void @rb_insert_case1(ptr noundef %0, ptr noundef nonnull %.142)
  br label %50

50:                                               ; preds = %.thread, %49, %8
  %.0 = phi ptr [ %.142, %49 ], [ %10, %8 ], [ %.04462, %.thread ]
  ret ptr %.0
}